target datalayout = "e-m:e-p270:32:32-p271:32:32-p272:64:64-i64:64-i128:128-f80:128-n8:16:32:64-S128"
target triple = "x86_64-pc-linux-gnu"

%struct.sljit_jump = type { ptr, i64, i64, %union.anon.0 }
%union.anon.0 = type { i64 }
%struct.jump_list = type { ptr, ptr }

; Function Attrs: nounwind uwtable
define internal void @sljit_set_label(ptr noundef %0, ptr noundef %1) #0 {
  %3 = alloca ptr, align 8
  %4 = alloca ptr, align 8
  store ptr %0, ptr %3, align 8
  store ptr %1, ptr %4, align 8
  %5 = load ptr, ptr %3, align 8
  %6 = icmp ne ptr %5, null
  %7 = xor i1 %6, true
  %8 = xor i1 %7, true
  %9 = zext i1 %8 to i32
  %10 = sext i32 %9 to i64
  %11 = icmp ne i64 %10, 0
  br i1 %11, label %12, label %32

12:                                               ; preds = %2
  %13 = load ptr, ptr %4, align 8
  %14 = icmp ne ptr %13, null
  %15 = xor i1 %14, true
  %16 = xor i1 %15, true
  %17 = zext i1 %16 to i32
  %18 = sext i32 %17 to i64
  %19 = icmp ne i64 %18, 0
  br i1 %19, label %20, label %32

20:                                               ; preds = %12
  %21 = load ptr, ptr %3, align 8
  %22 = getelementptr inbounds %struct.sljit_jump, ptr %21, i32 0, i32 2
  %23 = load i64, ptr %22, align 8
  %24 = and i64 %23, -3
  store i64 %24, ptr %22, align 8
  %25 = load ptr, ptr %3, align 8
  %26 = getelementptr inbounds %struct.sljit_jump, ptr %25, i32 0, i32 2
  %27 = load i64, ptr %26, align 8
  %28 = or i64 %27, 1
  store i64 %28, ptr %26, align 8
  %29 = load ptr, ptr %4, align 8
  %30 = load ptr, ptr %3, align 8
  %31 = getelementptr inbounds %struct.sljit_jump, ptr %30, i32 0, i32 3
  store ptr %29, ptr %31, align 8
  br label %32

32:                                               ; preds = %20, %12, %2
  ret void
}

; Function Attrs: nounwind uwtable
define internal void @set_jumps(ptr noundef %0, ptr noundef %1) #0 {
  %3 = alloca ptr, align 8
  %4 = alloca ptr, align 8
  store ptr %0, ptr %3, align 8
  store ptr %1, ptr %4, align 8
  br label %5

5:                                                ; preds = %8, %2
  %6 = load ptr, ptr %3, align 8
  %7 = icmp ne ptr %6, null
  br i1 %7, label %8, label %16

8:                                                ; preds = %5
  %9 = load ptr, ptr %3, align 8
  %10 = getelementptr inbounds %struct.jump_list, ptr %9, i32 0, i32 0
  %11 = load ptr, ptr %10, align 8
  %12 = load ptr, ptr %4, align 8
  call void @sljit_set_label(ptr noundef %11, ptr noundef %12)
  %13 = load ptr, ptr %3, align 8
  %14 = getelementptr inbounds %struct.jump_list, ptr %13, i32 0, i32 1
  %15 = load ptr, ptr %14, align 8
  store ptr %15, ptr %3, align 8
  br label %5

16:                                               ; preds = %5
  ret void
}