; Function Attrs: nofree norecurse nosync nounwind memory(readwrite, inaccessiblemem: none) uwtable
define internal fastcc void @set_jumps(ptr noundef readonly %0, ptr noundef %1) unnamed_addr #8 {
  %.not4 = icmp eq ptr %0, null
  br i1 %.not4, label %._crit_edge, label %.lr.ph

.lr.ph:                                           ; preds = %2
  %.not7.i = icmp eq ptr %1, null
  br i1 %.not7.i, label %sljit_set_label.exit.us, label %.lr.ph.split

sljit_set_label.exit.us:                          ; preds = %.lr.ph, %sljit_set_label.exit.us
  %.05.us = phi ptr [ %4, %sljit_set_label.exit.us ], [ %0, %.lr.ph ]
  %3 = getelementptr inbounds i8, ptr %.05.us, i64 8
  %4 = load ptr, ptr %3, align 8
  %.not.us = icmp eq ptr %4, null
  br i1 %.not.us, label %._crit_edge, label %sljit_set_label.exit.us

.lr.ph.split:                                     ; preds = %.lr.ph, %sljit_set_label.exit
  %.05 = phi ptr [ %13, %sljit_set_label.exit ], [ %0, %.lr.ph ]
  %5 = load ptr, ptr %.05, align 8
  %.not.i = icmp eq ptr %5, null
  br i1 %.not.i, label %sljit_set_label.exit, label %6

6:                                                ; preds = %.lr.ph.split
  %7 = getelementptr inbounds i8, ptr %5, i64 16
  %8 = load i64, ptr %7, align 8
  %9 = and i64 %8, -4
  %10 = or disjoint i64 %9, 1
  store i64 %10, ptr %7, align 8
  %11 = getelementptr inbounds i8, ptr %5, i64 24
  store ptr %1, ptr %11, align 8
  br label %sljit_set_label.exit

sljit_set_label.exit:                             ; preds = %.lr.ph.split, %6
  %12 = getelementptr inbounds i8, ptr %.05, i64 8
  %13 = load ptr, ptr %12, align 8
  %.not = icmp eq ptr %13, null
  br i1 %.not, label %._crit_edge, label %.lr.ph.split

._crit_edge:                                      ; preds = %sljit_set_label.exit, %sljit_set_label.exit.us, %2
  ret void
}